      Temp.lst						 Sourcer Listing v2.13    11-Sep-21   5:28 am   Page 1

020E:0648  F4					hlt				; Halt processor
020E:0649  48					dec	ax
020E:064A  5A					pop	dx
020E:064B  5E					pop	si
020E:064C			loc_1:						;  xref 020E:06AD, 072C, 07B0
020E:064C  1E					push	ds
020E:064D  50					push	ax
020E:064E  B8 0040				mov	ax,40h
020E:0651  8E D8				mov	ds,ax
020E:0653  F7 06 0314 2400			test	word ptr ds:[314h],2400h	; (0040:0314=5200h)
020E:0659  75 4F				jnz	loc_9			; Jump if not zero
020E:065B  55					push	bp
020E:065C  8B EC				mov	bp,sp
020E:065E  8B 46 0A				mov	ax,[bp+0Ah]
020E:0661  5D					pop	bp
020E:0662  A9 0100				test	ax,100h
020E:0665  75 43				jnz	loc_9			; Jump if not zero
020E:0667  A9 0200				test	ax,200h
020E:066A  74 22				jz	loc_5			; Jump if zero
020E:066C  F0> 81 0E 0314 0200	           lock	or	word ptr ds:[314h],200h	; (0040:0314=5200h)
020E:0673  F7 06 0314 0003			test	word ptr ds:[314h],3	; (0040:0314=5200h)
020E:0679  75 2F				jnz	loc_9			; Jump if not zero
020E:067B			loc_2:						;  xref 020E:0695
020E:067B  86 E0				xchg	ah,al
020E:067D  FC					cld				; Clear direction
020E:067E  A8 04				test	al,4
020E:0680  75 25				jnz	loc_8			; Jump if not zero
020E:0682			loc_3:						;  xref 020E:06A8
020E:0682  A8 08				test	al,8
020E:0684  75 11				jnz	loc_6			; Jump if not zero
020E:0686  70 19				jo	loc_7			; Jump if overflow=1
020E:0688			loc_4:						;  xref 020E:0697, 069F, 06A5
020E:0688  9E					sahf				; Store ah into flags
020E:0689  58					pop	ax
020E:068A  1F					pop	ds
020E:068B  CA 0002				retf	2			; Return far
020E:068E			loc_5:						;  xref 020E:066A
020E:068E  F0> 81 26 0314 FDFF	           lock	and	word ptr ds:[314h],0FDFFh	; (020E:0314=3231h)
020E:0695  EB E4				jmp	short loc_2		; (067B)
020E:0697			loc_6:						;  xref 020E:0684
020E:0697  70 EF				jo	loc_4			; Jump if overflow=1
020E:0699  50					push	ax
020E:069A  B0 7F				mov	al,7Fh
020E:069C  04 02				add	al,2
020E:069E  58					pop	ax
020E:069F  EB E7				jmp	short loc_4		; (0688)
020E:06A1			loc_7:						;  xref 020E:0686
020E:06A1  50					push	ax
020E:06A2  32 C0				xor	al,al			; Zero register
020E:06A4  58					pop	ax
020E:06A5  EB E1				jmp	short loc_4		; (0688)
020E:06A7			loc_8:						;  xref 020E:0680
020E:06A7  FD					std				; Set direction flag
020E:06A8  EB D8				jmp	short loc_3		; (0682)
020E:06AA			loc_9:						;  xref 020E:0659, 0665, 0679
020E:06AA  58					pop	ax
020E:06AB  1F					pop	ds
     Temp.lst						 Sourcer Listing v2.13    11-Sep-21   5:28 am   Page 2

020E:06AC  CF					iret				; Interrupt return
020E:06AD  EB 9D				jmp	short loc_1		; (064C)
020E:06AF  C4					db	0C4h
020E:06B0  C4 72 EB				les	si,dword ptr [bp+si-15h]	; Load 32 bit ptr
020E:06B3  98					cbw				; Convrt byte to word
020E:06B4  C4					db	0C4h
020E:06B5  C4 72 EB				les	si,dword ptr [bp+si-15h]	; Load 32 bit ptr
020E:06B8  93					xchg	ax,bx
020E:06B9  E8 011D				call	$+120h
020E:06BC  50					push	ax
020E:06BD  53					push	bx
020E:06BE  51					push	cx
020E:06BF  52					push	dx
020E:06C0  1E					push	ds
020E:06C1  B8 0040				mov	ax,40h
020E:06C4  8E D8				mov	ds,ax
020E:06C6  80 3E 0100 01			cmp	byte ptr ds:[100h],1	; (0040:0100=0)
020E:06CB  74 5A				je	loc_15			; Jump if equal
020E:06CD  C6 06 0100 01			mov	byte ptr ds:[100h],1	; (0040:0100=0)
020E:06D2  8A 2E 004A				mov	ch,byte ptr ds:[4Ah]	; (0040:004A=50h)
020E:06D6  8A 0E 0084				mov	cl,byte ptr ds:[84h]	; (0040:0084=18h)
020E:06DA  8A 3E 0062				mov	bh,byte ptr ds:[62h]	; (0040:0062=0)
020E:06DE  E8 004E				call	sub_1			; (072F)
020E:06E1  51					push	cx
020E:06E2  B4 03				mov	ah,3
020E:06E4  CD 10				int	10h			; Video display   ah=functn 03h
										;  get cursor loc in dx, mode cx
020E:06E6  59					pop	cx
020E:06E7  52					push	dx
020E:06E8  32 F6				xor	dh,dh			; Zero register
020E:06EA			loc_10:						;  xref 020E:071B
020E:06EA  32 D2				xor	dl,dl			; Zero register
020E:06EC			loc_11:						;  xref 020E:0712
020E:06EC  52					push	dx
020E:06ED  B4 02				mov	ah,2
020E:06EF  CD 10				int	10h			; Video display   ah=functn 02h
										;  set cursor location in dx
020E:06F1  B4 08				mov	ah,8
020E:06F3  CD 10				int	10h			; Video display   ah=functn 08h
										;  get char al & attrib ah @curs
020E:06F5  0A C0				or	al,al			; Zero ?
020E:06F7  75 02				jnz	loc_12			; Jump if not zero
020E:06F9  B0 20				mov	al,20h			; ' '
020E:06FB			loc_12:						;  xref 020E:06F7
020E:06FB  33 D2				xor	dx,dx			; Zero register
020E:06FD  32 E4				xor	ah,ah			; Zero register
020E:06FF  CD 17				int	17h			; Printer  dx=prn#, ah=func 10h
										;  print char in al
020E:0701  5A					pop	dx
020E:0702  80 E4 25				and	ah,25h			; '%'
020E:0705  74 07				jz	loc_13			; Jump if zero
020E:0707  C6 06 0100 FF			mov	byte ptr ds:[100h],0FFh	; (0040:0100=0)
020E:070C  EB 14				jmp	short loc_14		; (0722)
020E:070E			loc_13:						;  xref 020E:0705
020E:070E  FE C2				inc	dl
020E:0710  3A D5				cmp	dl,ch
020E:0712  72 D8				jb	loc_11			; Jump if below
     Temp.lst						 Sourcer Listing v2.13    11-Sep-21   5:28 am   Page 3

020E:0714  E8 0018				call	sub_1			; (072F)
020E:0717  FE C6				inc	dh
020E:0719  3A F1				cmp	dh,cl
020E:071B  76 CD				jbe	loc_10			; Jump if below or =
020E:071D  C6 06 0100 00			mov	byte ptr ds:[100h],0	; (0040:0100=0)
020E:0722			loc_14:						;  xref 020E:070C
020E:0722  5A					pop	dx
020E:0723  B4 02				mov	ah,2
020E:0725  CD 10				int	10h			; Video display   ah=functn 02h
										;  set cursor location in dx
020E:0727			loc_15:						;  xref 020E:06CB
020E:0727  1F					pop	ds
020E:0728  5A					pop	dx
020E:0729  59					pop	cx
020E:072A  5B					pop	bx
020E:072B  58					pop	ax
020E:072C  E9 FF1D				jmp	loc_1			; (064C)

	;==============================;
	; SUBROUTINE                   ;
	; Called from: 020E:06DE, 0714 ;
	;==============================;

				sub_1		proc	near
020E:072F  52					push	dx
020E:0730  33 D2				xor	dx,dx			; Zero register
020E:0732  B8 000D				mov	ax,0Dh
020E:0735  CD 17				int	17h			; Printer  dx=prn#, ah=func 10h
										;  print char in al
020E:0737  33 D2				xor	dx,dx			; Zero register
020E:0739  B8 000A				mov	ax,0Ah
020E:073C  CD 17				int	17h			; Printer  dx=prn#, ah=func 10h
										;  print char in al
020E:073E  5A					pop	dx
020E:073F  C3					retn
				sub_1		endp
  
020E:0740  C4					db	0C4h
020E:0741  C4 06 06E9				les	ax,dword ptr ds:[6E9h]	; (020E:06E9=32F6h) Load 32 bit ptr
020E:0745  FF					db	0FFh
  
	;================;
	; INTERUPTION 8h ;
	;================;

020E:0746  E8 0070				call	sub_1			; (07B9)
020E:0749  06					push	es
020E:074A  1E					push	ds
020E:074B  50					push	ax
020E:074C  52					push	dx
020E:074D  B8 0040				mov	ax,40h
020E:0750  8E D8				mov	ds,ax
020E:0752  33 C0				xor	ax,ax			; Zero register
020E:0754  8E C0				mov	es,ax
020E:0756  FF 06 006C				inc	word ptr ds:[6Ch]	; (0040:006C=795Fh)
020E:075A  75 04				jnz	loc_16			; Jump if not zero
020E:075C  FF 06 006E				inc	word ptr ds:[6Eh]	; (0040:006E=5)
			loc_16:						;  xref 020E:075A
020E:0760  83 3E 006E 18			cmp	word ptr ds:[6Eh],18h	; (0040:006E=5)
020E:0765  75 15				jne	loc_17			; Jump if not equal
020E:0767  81 3E 006C 00B0			cmp	word ptr ds:[6Ch],0B0h	; (0040:006C=7960h)
020E:076D  75 0D				jne	loc_17			; Jump if not equal
020E:076F  A3 006E				mov	word ptr ds:[6Eh],ax	; (0040:006E=5)
020E:0772  A3 006C				mov	word ptr ds:[6Ch],ax	; (0040:006C=7960h)
020E:0775  C6 06 0070 01			mov	byte ptr ds:[70h],1	; (0040:0070=0)
020E:077A  0C 08				or	al,8
			loc_17:						;  xref 020E:0765, 076D
020E:077C  50					push	ax
020E:077D  FE 0E 0040				dec	byte ptr ds:[40h]	; (0040:0040=0F4h)
020E:0781  75 0B				jnz	loc_18			; Jump if not zero
020E:0783  80 26 003F F0			and	byte ptr ds:[3Fh],0F0h	; (0040:003F=0)
020E:0788  B0 0C				mov	al,0Ch
020E:078A  BA 03F2				mov	dx,3F2h
020E:078D  EE					out	dx,al			; port 3F2h, dsk0 contrl output
			loc_18:						;  xref 020E:0781
020E:078E  58					pop	ax
020E:078F  F7 06 0314 0004			test	word ptr ds:[314h],4	; (0040:0314=5200h)
020E:0795  75 0C				jnz	loc_19			; Jump if not zero
020E:0797  9F					lahf				; Load ah from flags
020E:0798  86 E0				xchg	ah,al
020E:079A  50					push	ax
020E:079B  26: FF 1E 0070			call	dword ptr es:[70h]	; (0000:0070=6ADh)
020E:07A0  EB 03				jmp	short loc_20		; (07A5)
020E:07A2  90					nop
			loc_19:						;  xref 020E:0795
020E:07A3  CD 1C				int	1Ch			; Timer break (call each 18.2ms)
			loc_20:						;  xref 020E:07A0
020E:07A5  E8 0011				call	sub_2			; (07B9)
020E:07A8  B0 20				mov	al,20h			; ' '
020E:07AA  E6 20				out	20h,al			; port 20h, 8259-1 int command
	;  al = 20h, end of interrupt
020E:07AC  5A					pop	dx
020E:07AD  58					pop	ax
020E:07AE  1F					pop	ds
020E:07AF  07					pop	es
020E:07B0  E9 FE99				jmp	$-164h			; (064C)
020E:07B3  C4					db	0C4h
020E:07B4  C4 0E 93E9				les	cx,dword ptr ds:[93E9h]	; (32F6:93E9=0FFFFh) Load 32 bit ptr
020E:07B8  FE					db	0FEh

	;==============================;
	; SUBROUTINE                   ;
	; Called from: 020E:0746, 07A5 ;
	;==============================;

				sub_1		proc	near
020E:07B9  1E					push	ds
020E:07BA  50					push	ax
020E:07BB  B8 0040				mov	ax,40h
020E:07BE  8E D8				mov	ds,ax
020E:07C0  9F					lahf				; Load ah from flags
020E:07C1  F7 06 0314 2400			test	word ptr ds:[314h],2400h	; (0040:0314=5200h)
020E:07C7  75 0C				jnz	loc_22			; Jump if not zero
020E:07C9  F0> 81 26 0314 FDFF	           lock	and	word ptr ds:[314h],0FDFFh	; (0040:0314=5200h)
			loc_21:						;  xref 020E:07D6
020E:07D0  9E					sahf				; Store ah into flags
020E:07D1  58					pop	ax
     Temp.lst						 Sourcer Listing v2.13    11-Sep-21   5:28 am   Page 5

020E:07D2  1F					pop	ds
020E:07D3  EB 03				jmp	short $+5h
			loc_22:						;  xref 020E:07C7
020E:07D5  FA					cli				; Disable interrupts
020E:07D6  EB F8				jmp	short loc_21		; (07D0)
				sub_1		endp
  
020E:07D8  C3					retn
  
  
